(lp0
(S'Multijets'
p1
F0.5912405981467472
F0.1669307539420295
tp2
a(S'Top'
p3
F0.7459791451097375
F0.5198130984867683
tp4
a(S'Wjets'
p5
F1.1163804599325644
F0.1436359094133255
tp6
a(S'Zjets'
p7
F1.0330087313248637
F0.06072134224331671
tp8
a.