(lp0
(S'Multijets'
p1
F0.6366034421834144
F0.16638602579055473
tp2
a(S'Top'
p3
F0.7406169182739564
F0.511627981845314
tp4
a(S'Wjets'
p5
F1.1175747124728685
F0.14243366565126758
tp6
a(S'Zjets'
p7
F1.0329561631651496
F0.060720481907250434
tp8
a.