(lp0
(S'Multijets'
p1
F0.6902822119458918
F0.01982898290009416
tp2
a(S'Top'
p3
F0.8116289606008853
F0.17673780191565513
tp4
a(S'Wjets'
p5
F0.9339757136920535
F0.10856305505156649
tp6
a(S'Zjets'
p7
F0.8701228219751
F0.05317682786278033
tp8
a.