(lp0
(S'Multijets'
p1
F0.9420883295696569
F0.06220799431133628
tp2
a(S'Top'
p3
F0.7692824212122973
F0.21060044160699232
tp4
a(S'Wjets'
p5
F0.8726706004234253
F0.15398024643217822
tp6
a(S'Zjets'
p7
F1.0693400072991355
F0.11739049988897243
tp8
a.