((lp0
F1300.0
aF600.0
aF1000.0
aF200.0
aF1400.0
aF1550.0
aF1350.0
aF850.0
aF1200.0
aF1150.0
aF725.0
aF812.0
aF1400.0
aF1550.0
aF425.0
aF1000.0
aF1500.0
aF400.0
aF1550.0
aF1150.0
aF1200.0
aF1600.0
aF1650.0
aF900.0
aF1050.0
aF750.0
aF1300.0
aF1250.0
aF1600.0
aF1550.0
aF1700.0
aF1350.0
aF1600.0
aF700.0
aF1150.0
aF712.0
aF1350.0
aF1400.0
aF1350.0
aF950.0
aF900.0
aF1250.0
aF1400.0
aF1450.0
aF1250.0
aF800.0
aF950.0
aF1650.0
aF625.0
aF1450.0
aF1000.0
aF1200.0
aF1600.0
aF412.0
aF1100.0
aF800.0
aF1250.0
aF1100.0
aF1650.0
aF1100.0
aF1050.0
aF650.0
aF1500.0
aF550.0
aF1100.0
aF1500.0
aF1700.0
aF825.0
aF1500.0
aF850.0
aF1200.0
aF750.0
aF612.0
aF1450.0
aF1450.0
aF1700.0
aF1200.0
aF1300.0
aF1150.0
aF1400.0
a(lp1
F700.0
aF0.0
aF0.0
aF0.0
aF200.0
aF650.0
aF450.0
aF550.0
aF200.0
aF450.0
aF675.0
aF787.0
aF600.0
aF250.0
aF375.0
aF600.0
aF300.0
aF0.0
aF50.0
aF50.0
aF800.0
aF200.0
aF150.0
aF500.0
aF750.0
aF650.0
aF300.0
aF750.0
aF600.0
aF450.0
aF300.0
aF650.0
aF0.0
aF500.0
aF650.0
aF687.0
aF50.0
aF400.0
aF250.0
aF650.0
aF700.0
aF550.0
aF800.0
aF750.0
aF350.0
aF0.0
aF450.0
aF550.0
aF575.0
aF350.0
aF800.0
aF400.0
aF400.0
aF387.0
aF500.0
aF600.0
aF150.0
aF700.0
aF350.0
aF100.0
aF550.0
aF550.0
aF700.0
aF450.0
aF300.0
aF500.0
aF500.0
aF775.0
aF100.0
aF750.0
aF0.0
aF450.0
aF587.0
aF150.0
aF550.0
aF100.0
aF600.0
aF100.0
aF250.0
aF0.0
a(lp2
F2.051185761156695
aF6.918490675841416
aF7.3799091263433505
aF0.9474011605074139
aF3.7772103820854546
aF1.4042197582047091
aF3.059636469124536
aF2.5135273774626254
aF5.2259757127955355
aF4.709503623282939
aF1.740381567167314
aF1.1775070131348033
aF1.9918858850782868
aF2.3352254939387893
aF4.598418493299186
aF2.641418286100789
aF2.6508524006001304
aF3.6031108124945845
aF2.272220097391577
aF6.152588085954096
aF1.090428121246387
aF1.9186353387438806
aF1.6148255429515803
aF3.925243526341812
aF1.0158798612474258
aF1.9051665872107577
aF4.3386910059828265
aF1.684464264984933
aF1.462531276771102
aF2.0336230102892237
aF1.3115654999368438
aF2.1101218696800683
aF1.9093040512841781
aF2.568460748810205
aF2.369680678484026
aF1.8769007359333052
aF4.395838453841234
aF3.0632787864495103
aF4.12682504364333
aF1.911992780988112
aF1.288404595164009
aF2.3926133914646948
aF1.3074498396643794
aF1.4381536606591188
aF4.150806345749295
aF7.43070206294948
aF4.834678696984963
aF1.3519718520974018
aF3.046872461401526
aF3.023418185470834
aF0.5174243002916077
aF3.652718735661089
aF1.8362094877866335
aF6.178956358350248
aF4.3953747328369905
aF1.593670923475067
aF5.349940528744684
aF1.7031684987242601
aF1.5753923894687734
aF6.350277733849638
aF3.800021593595277
aF2.86363159931553
aF1.3465251347489244
aF3.9457253103955736
aF5.813861574405846
aF2.1571782304086353
aF1.2070149151259415
aF1.0475872809577698
aF2.7828109332745163
aF1.0181446897977668
aF5.839157757538624
aF4.022336635446632
aF3.8337554341680553
aF3.250971465975585
aF2.0641552382928885
aF1.301446809418182
aF3.091188875843584
aF4.760145651639476
aF5.4357755427537935
aF3.8268191372532887
a(lp3
S'SR5j'
p4
ag4
aS'SR4jt'
p5
aS'SR2jm'
p6
ag5
ag5
ag5
ag4
ag5
ag4
ag6
aS'SR2jt'
p7
ag4
ag5
ag6
ag4
ag5
aS'SR2jl'
p8
ag5
ag5
ag4
ag5
ag5
ag4
ag4
ag6
ag5
ag4
ag5
ag5
ag5
ag4
ag5
ag4
ag4
ag6
ag5
ag5
ag5
ag4
ag4
aS'SR6jm'
p9
ag4
ag4
ag5
ag4
ag4
ag5
ag6
ag5
ag6
ag5
ag5
ag8
ag4
ag4
ag5
ag4
ag5
ag5
ag4
ag6
ag4
ag6
ag4
ag5
ag5
ag6
ag5
ag6
ag5
ag4
ag8
ag5
ag5
ag5
ag4
ag5
ag4
ag5
atp10
.