((lp0
F985.0
aF1500.0
aF1600.0
aF1695.0
aF1445.0
aF1020.0
aF1090.0
aF1245.0
aF940.0
aF1240.0
aF815.0
aF1750.0
aF1545.0
aF995.0
aF1705.0
aF665.0
aF1640.0
aF845.0
aF1540.0
aF1800.0
aF640.0
aF1350.0
aF835.0
aF1390.0
aF740.0
aF610.0
aF1200.0
aF685.0
aF1340.0
aF1650.0
aF1285.0
aF1490.0
aF890.0
aF1450.0
aF1395.0
aF790.0
aF1040.0
aF1190.0
aF920.0
aF1095.0
aF1145.0
aF1745.0
aF1295.0
aF1135.0
aF1595.0
aF715.0
a(lp1
F915.0
aF400.0
aF300.0
aF805.0
aF755.0
aF130.0
aF810.0
aF355.0
aF660.0
aF960.0
aF335.0
aF450.0
aF655.0
aF305.0
aF195.0
aF185.0
aF1160.0
aF155.0
aF1260.0
aF700.0
aF360.0
aF250.0
aF765.0
aF1110.0
aF260.0
aF540.0
aF100.0
aF615.0
aF860.0
aF550.0
aF1215.0
aF1010.0
aF410.0
aF150.0
aF505.0
aF510.0
aF560.0
aF710.0
aF230.0
aF205.0
aF455.0
aF1055.0
aF605.0
aF1065.0
aF905.0
aF435.0
a(lp2
F-32.5820972968376
aF-2.5281058426065073
aF-1.1049437903892245
aF-0.6218553270917087
aF-5.265385037750472
aF-9.865824397901438
aF-29.975070805700796
aF-3.416753147653318
aF-53.60054350965075
aF-11.298204484129615
aF-42.07595203765805
aF-0.6083708327215475
aF-2.8564492284405185
aF-26.838221831736544
aF-0.43981946918310144
aF-27.598179358970288
aF-1.4983581827043906
aF-23.02789381521034
aF-1.3842959592557005
aF-0.641235037698618
aF-51.9651381577442
aF-3.902557940812447
aF-71.06653736404867
aF-3.7379684429270053
aF-38.13006572481537
aF-86.856593881074
aF-4.216950258233168
aF-48.06994144055431
aF-8.988431983161204
aF-1.3967463938043783
aF-4.026641802571666
aF-3.895794404420638
aF-47.64791757214589
aF-1.3263257662067625
aF-5.312048812816945
aF-53.10240518648532
aF-40.99674478267528
aF-21.133086014618172
aF-27.08572682132935
aF-8.783652730083666
aF-18.444893521681898
aF-1.0264697824920987
aF-9.933696069796772
aF-10.199952885133108
aF-2.3718816891721004
aF-53.909881345856775
a(lp3
S'SR2jm'
p4
aS'SR4jt'
p5
ag5
ag5
aS'SR6jt'
p6
aS'SR5j'
p7
ag7
ag6
ag7
ag7
ag7
ag5
ag5
ag7
ag5
ag7
ag6
ag7
ag6
ag5
ag7
ag5
aS'SR2jl'
p8
aS'SR6jm'
p9
ag7
ag8
ag5
ag8
ag6
ag5
aS'SR2jt'
p10
ag6
ag7
ag5
ag5
ag7
ag7
ag7
ag7
ag7
ag7
ag5
ag6
ag4
ag6
ag7
atp11
.