((lp0
F1500.0
aF1600.0
aF1695.0
aF1445.0
aF1020.0
aF1090.0
aF1245.0
aF1240.0
aF1545.0
aF1640.0
aF1540.0
aF1350.0
aF1390.0
aF1200.0
aF1340.0
aF1650.0
aF1285.0
aF1490.0
aF1450.0
aF1395.0
aF1040.0
aF1190.0
aF1095.0
aF1145.0
aF1295.0
aF1135.0
aF1595.0
a(lp1
F400.0
aF300.0
aF805.0
aF755.0
aF130.0
aF810.0
aF355.0
aF960.0
aF655.0
aF1160.0
aF1260.0
aF250.0
aF1110.0
aF100.0
aF860.0
aF550.0
aF1215.0
aF1010.0
aF150.0
aF505.0
aF560.0
aF710.0
aF205.0
aF455.0
aF605.0
aF1065.0
aF905.0
a(lp2
F-3.46681936953789
aF-1.5427849096393544
aF-0.9118618040701472
aF-6.4734610846486
aF-13.669392337852754
aF-36.38600713729538
aF-5.3544854709063285
aF-10.583116517295165
aF-3.6497518222156575
aF-1.7628554444132662
aF-1.5327241240846454
aF-5.454148123581622
aF-3.45242109952284
aF-5.606238337448419
aF-9.696310632168819
aF-1.9177322998907005
aF-5.531887334526282
aF-4.4344776515951985
aF-1.932938545262956
aF-7.1836923283743035
aF-60.392128345338186
aF-23.11034631106746
aF-14.841966105463719
aF-23.981580498755157
aF-12.424313982356676
aF-12.547294182244165
aF-3.0038186805929326
a(lp3
S'SR5jt'
p4
ag4
aS'SR4jtprime'
p5
aS'SR7j'
p6
aS'SR4jm'
p7
aS'SR6jmprime'
p8
ag6
ag8
ag6
ag5
ag6
ag4
ag6
ag4
ag6
ag5
aS'SR2jZ'
p9
ag6
ag4
ag6
ag8
ag8
ag7
ag7
ag6
ag9
ag6
atp10
.