((lp0
F1600.0
aF1200.0
aF1200.0
aF1400.0
aF1400.0
aF1200.0
aF1200.0
aF1200.0
aF1400.0
aF1200.0
aF1600.0
aF1400.0
aF1600.0
aF1200.0
aF1600.0
aF1400.0
aF1400.0
aF1600.0
aF1400.0
aF1200.0
aF1600.0
aF1600.0
aF1600.0
aF1200.0
aF1600.0
aF1600.0
aF1600.0
aF1400.0
aF1600.0
aF1200.0
aF1600.0
aF1200.0
aF1400.0
aF1400.0
aF1400.0
aF1400.0
aF1600.0
aF1400.0
aF1200.0
a(lp1
F1460.0
aF1000.0
aF1060.0
aF460.0
aF1060.0
aF160.0
aF660.0
aF110.0
aF160.0
aF1100.0
aF1500.0
aF110.0
aF1550.0
aF860.0
aF1260.0
aF660.0
aF1260.0
aF860.0
aF1300.0
aF1190.0
aF1400.0
aF660.0
aF1590.0
aF1150.0
aF70.0
aF260.0
aF460.0
aF860.0
aF1060.0
aF70.0
aF160.0
aF260.0
aF1350.0
aF1200.0
aF260.0
aF1390.0
aF110.0
aF70.0
aF460.0
a(lp2
F-0.4925488331693983
aF-7.718683795199911
aF-6.914278609713942
aF-5.694303244852719
aF-4.380414335127608
aF-4.5879817570465145
aF-17.78425789498911
aF-6.5073268335914385
aF-1.7110283216605757
aF-7.402669004466098
aF-0.5292744278944513
aF-2.5986245244193444
aF-0.5564837728193717
aF-16.49439154726855
aF-1.3196871062882107
aF-7.367322992319916
aF-1.7502655724846625
aF-2.6747181865820284
aF-1.7794021365393295
aF-9.550308933624619
aF-0.5891001871949376
aF-2.4124527505732742
aF-0.5828321388614578
aF-8.613857187216027
aF-1.416925129712117
aF-1.0011174061565071
aF-1.6960590019594282
aF-6.981477064177181
aF-2.3423668995307825
aF-10.450662203362342
aF-0.5620592708096723
aF-8.443261734840474
aF-2.054634984361899
aF-1.9765759758224601
aF-3.1063753842468667
aF-2.211357782222155
aF-0.8615814536086974
aF-4.109258220029482
aF-15.240983265134945
a(lp3
S'SR2jtprime'
p4
aS'SR4jm'
p5
ag4
aS'SR7j'
p6
ag6
ag6
aS'SR6jmprime'
p7
ag6
ag6
ag4
ag4
aS'SR5jt'
p8
ag4
ag7
ag8
ag6
ag4
ag6
ag4
ag4
ag8
ag6
ag4
ag4
aS'SR4jtprime'
p9
ag6
ag6
ag6
ag9
ag5
ag6
ag6
ag4
ag8
ag6
ag4
ag8
ag8
ag6
atp10
.