((lp0
F1745.0
aF1945.0
aF945.0
aF825.0
aF1065.0
aF1545.0
aF957.0
aF1345.0
aF1185.0
aF237.0
aF505.0
aF1305.0
aF1625.0
aF397.0
aF905.0
aF1265.0
aF1345.0
aF1145.0
aF665.0
aF1065.0
aF477.0
aF1225.0
aF1465.0
aF797.0
aF1105.0
aF1105.0
aF985.0
aF1825.0
aF1225.0
aF637.0
aF1625.0
aF1865.0
aF585.0
aF1505.0
aF1145.0
aF345.0
aF1545.0
aF1705.0
aF1665.0
aF1037.0
aF1385.0
aF745.0
aF717.0
aF1425.0
aF1945.0
aF1505.0
aF985.0
aF1785.0
aF265.0
aF1865.0
aF1225.0
aF2025.0
aF1705.0
aF425.0
aF1985.0
aF877.0
aF1185.0
aF1385.0
aF1705.0
aF745.0
aF317.0
aF1305.0
aF1585.0
aF557.0
aF1905.0
aF905.0
aF1825.0
aF1025.0
aF1425.0
aF1465.0
aF1785.0
aF785.0
aF1385.0
aF1745.0
aF1665.0
aF1585.0
aF1905.0
aF1545.0
aF1265.0
aF2025.0
aF1065.0
a(lp1
F945.0
aF1345.0
aF785.0
aF785.0
aF545.0
aF1025.0
aF946.0
aF1105.0
aF785.0
aF226.0
aF465.0
aF1025.0
aF945.0
aF386.0
aF705.0
aF705.0
aF865.0
aF945.0
aF625.0
aF1025.0
aF466.0
aF865.0
aF865.0
aF786.0
aF865.0
aF625.0
aF865.0
aF1105.0
aF1105.0
aF626.0
aF1185.0
aF1185.0
aF545.0
aF1185.0
aF705.0
aF305.0
aF785.0
aF865.0
aF1265.0
aF1026.0
aF1185.0
aF625.0
aF706.0
aF1025.0
aF1105.0
aF945.0
aF945.0
aF1265.0
aF225.0
aF945.0
aF625.0
aF1025.0
aF1105.0
aF385.0
aF1185.0
aF866.0
aF1025.0
aF705.0
aF1345.0
aF705.0
aF306.0
aF785.0
aF1105.0
aF546.0
aF1025.0
aF865.0
aF1345.0
aF945.0
aF785.0
aF1105.0
aF1025.0
aF705.0
aF945.0
aF1185.0
aF1025.0
aF865.0
aF1265.0
aF1265.0
aF945.0
aF1265.0
aF785.0
a(lp2
F-0.9039045088306207
aF-0.2736350619531148
aF-1.007260569605574
aF-1.0865000390206423
aF-30.946576632955164
aF-2.034101895133794
aF-0.5176407943741029
aF-0.42419619470918674
aF-13.084248082693255
aF-11.92823002207918
aF-13.91019108604086
aF-1.39001407066963
aF-1.7470834709303658
aF-79.85697734933251
aF-3.030951658708134
aF-11.245980936713266
aF-6.067469949012771
aF-0.6720524472159672
aF-4.400925702303073
aF-0.2109310533687401
aF-56.77127333619922
aF-7.584455652796787
aF-4.118370896824955
aF-2.147208307998174
aF-2.2505611156203384
aF-24.561408003156426
aF-0.32022840492095406
aF-0.5666979825763908
aF-0.07447659393253625
aF-15.400998572576736
aF-0.9035813394471811
aF-0.4438659734285426
aF-9.021427253999507
aF-0.7225267648619841
aF-19.520681295812047
aF-9.890753179934082
aF-2.6631401261812235
aF-1.0756414501633302
aF-0.5880436579219964
aF-0.3025579043605369
aF-0.2059096615777073
aF-1.5101112639951875
aF-4.635331602765308
aF-2.8624075272793545
aF-0.3109307746493408
aF-2.9106496721232857
aF-0.33033170831368974
aF-0.5258057679486386
aF-3.634440512466557
aF-0.4563407528813529
aF-13.126833352875781
aF-0.20204201306626537
aF-1.0456886789670745
aF-12.689705370394158
aF-0.2559250408385893
aF-1.0248990158264855
aF-0.2576010764800307
aF-6.186011895252843
aF-0.3787610564038383
aF-1.8309259598514043
aF-112.1938256121147
aF-8.584662402834384
aF-1.3072229557770052
aF-27.71039219086452
aF-0.3752610286658472
aF-0.5519657244321968
aF-0.352339356196907
aF-0.21074313032526598
aF-5.292897082862504
aF-1.6885011416200106
aF-0.7186393627208872
aF-1.3353237187789138
aF-4.300505635596327
aF-0.7350508014938716
aF-1.281662670990878
aF-2.1896975764162288
aF-0.3367139258256959
aF-0.35226368785122986
aF-3.633811134110256
aF-0.20295129405129195
aF-6.306454234958256
a(lp3
S'SR4jt'
p4
aS'SR6jt'
p5
aS'SR6jm'
p6
aS'SR2jm'
p7
aS'SR5j'
p8
ag5
ag7
ag6
ag6
aS'SR2jl'
p9
ag7
ag6
ag5
ag9
ag6
ag5
ag6
ag6
ag7
ag7
ag9
ag6
ag5
ag7
ag6
ag8
ag6
ag4
ag6
ag7
ag6
ag5
ag7
ag6
ag8
ag7
ag4
ag4
ag6
ag7
ag6
ag6
ag9
ag6
ag4
ag5
ag7
ag5
ag7
ag4
ag5
ag4
ag5
ag7
ag4
ag7
ag6
ag5
ag6
ag9
ag9
ag6
ag5
ag9
ag4
ag7
ag5
ag7
ag5
ag6
ag4
ag7
ag6
ag5
ag5
ag5
ag5
ag6
ag6
ag4
ag6
atp10
.