((lp0
F317.0
aF637.0
aF1505.0
aF1545.0
aF1625.0
aF1265.0
aF1585.0
aF717.0
aF477.0
aF425.0
aF1465.0
aF585.0
aF985.0
aF1345.0
aF1385.0
aF665.0
aF1585.0
aF1305.0
aF945.0
aF1145.0
aF745.0
aF505.0
aF1425.0
aF905.0
aF557.0
aF1145.0
aF1625.0
aF1425.0
aF265.0
aF397.0
aF345.0
aF797.0
aF825.0
aF1545.0
aF1065.0
aF1385.0
aF237.0
aF1185.0
aF1665.0
aF1225.0
aF1225.0
aF1065.0
aF1105.0
aF1105.0
aF1465.0
aF785.0
aF1265.0
aF1305.0
aF745.0
a(lp1
F295.0
aF615.0
aF385.0
aF505.0
aF265.0
aF625.0
aF625.0
aF695.0
aF455.0
aF345.0
aF265.0
aF505.0
aF745.0
aF385.0
aF505.0
aF585.0
aF145.0
aF745.0
aF625.0
aF265.0
aF665.0
aF425.0
aF145.0
aF505.0
aF535.0
aF745.0
aF745.0
aF625.0
aF185.0
aF375.0
aF265.0
aF775.0
aF745.0
aF25.0
aF505.0
aF25.0
aF215.0
aF385.0
aF385.0
aF505.0
aF25.0
aF25.0
aF145.0
aF625.0
aF745.0
aF625.0
aF145.0
aF265.0
aF505.0
a(lp2
F5.99722955061068
aF2.95192893570953
aF2.0253671304488052
aF1.5817025076160705
aF1.424950189794634
aF2.0632795064365466
aF1.1433926566707657
aF1.180403929083872
aF6.205326674142815
aF3.4202014437597437
aF2.544386633025582
aF2.417223103349699
aF0.34778187847957365
aF2.971863137787972
aF2.3093887272771356
aF1.6321109282907453
aF1.7009904525901267
aF1.126417601328863
aF0.8948045081883139
aF5.254539197596875
aF1.0585968985125418
aF2.944224933454608
aF2.9942289486812013
aF1.8342998259176357
aF4.305883734612354
aF0.6560036123007218
aF0.8314093833827122
aF1.8013884203678623
aF2.010076621330792
aF5.423456579158387
aF3.203163810919476
aF1.2329929351702025
aF0.8032462814816727
aF1.952061697525012
aF2.744127327388326
aF3.297220006389124
aF3.835838660276201
aF4.344842825337913
aF1.1290901644090523
aF3.11625063746858
aF5.050624748277922
aF6.160403040752055
aF5.40918789363056
aF1.5113972876489128
aF1.285884024225843
aF0.8702653685344683
aF4.763752713833691
aF3.9610857850558263
aF0.9996448710460459
a(lp3
S'SR2jm'
p4
aS'SR2jl'
p5
aS'SR6jt'
p6
ag6
ag6
aS'SR6jm'
p7
ag6
aS'SR2jt'
p8
ag5
ag4
ag6
ag4
ag7
ag6
ag7
ag4
aS'SR4jt'
p9
ag7
ag7
aS'SR5j'
p10
ag5
ag4
ag6
ag7
ag5
ag7
ag7
ag7
ag4
ag4
ag4
ag8
ag8
ag9
ag7
ag6
ag5
ag10
ag6
ag7
ag6
ag6
ag7
ag7
ag7
ag4
ag6
ag6
ag10
atp11
.