((lp0
F1500.0
aF1600.0
aF1695.0
aF1445.0
aF1020.0
aF1090.0
aF1245.0
aF1240.0
aF1545.0
aF1640.0
aF1540.0
aF1350.0
aF1390.0
aF1200.0
aF1340.0
aF1650.0
aF1285.0
aF1490.0
aF1450.0
aF1395.0
aF1040.0
aF1190.0
aF1095.0
aF1145.0
aF1295.0
aF1135.0
aF1595.0
a(lp1
F400.0
aF300.0
aF805.0
aF755.0
aF130.0
aF810.0
aF355.0
aF960.0
aF655.0
aF1160.0
aF1260.0
aF250.0
aF1110.0
aF100.0
aF860.0
aF550.0
aF1215.0
aF1010.0
aF150.0
aF505.0
aF560.0
aF710.0
aF205.0
aF455.0
aF605.0
aF1065.0
aF905.0
a(lp2
F1.8835308729131086
aF1.038390264876095
aF0.6524846066276584
aF2.9706973841097053
aF3.6499021741631617
aF6.095889619506587
aF2.238762399568579
aF4.15676932857728
aF2.044903629845103
aF1.3018406046714603
aF1.2184616228352305
aF2.500206880489958
aF2.3076936772421117
aF2.6242691308948354
aF4.145832552867657
aF1.2397231810781413
aF2.344738040568469
aF2.4342610195620806
aF1.1921383548290214
aF3.016321516405653
aF6.689340227000225
aF5.579730292546984
aF3.8053475706523723
aF5.609422323930052
aF4.391024743440194
aF3.6770352977791965
aF1.801882208310044
a(lp3
S'SR4jt'
p4
ag4
ag4
aS'SR6jt'
p5
ag5
aS'SR5j'
p6
ag5
ag5
ag4
ag4
ag4
ag4
ag5
ag4
ag5
ag4
aS'SR2jt'
p7
ag5
ag4
ag4
ag6
ag5
ag5
ag5
ag5
ag7
ag4
atp8
.