((lp0
F1100.0
aF900.0
aF900.0
aF800.0
aF400.0
aF1300.0
aF800.0
aF425.0
aF1100.0
aF1000.0
aF600.0
aF1000.0
aF1200.0
aF1300.0
aF1200.0
aF400.0
aF1300.0
aF1000.0
aF900.0
aF600.0
aF600.0
aF1300.0
aF500.0
aF800.0
aF1300.0
aF700.0
aF900.0
aF800.0
aF1000.0
aF600.0
aF1300.0
aF900.0
aF1000.0
aF1200.0
aF900.0
aF1200.0
aF1000.0
aF900.0
aF700.0
aF1100.0
aF1100.0
aF1100.0
aF700.0
aF500.0
aF500.0
aF800.0
aF800.0
aF500.0
aF700.0
aF600.0
aF1000.0
aF800.0
aF400.0
aF1200.0
aF1100.0
aF1200.0
aF1200.0
aF1300.0
aF1100.0
a(lp1
F300.0
aF0.0
aF300.0
aF0.0
aF350.0
aF200.0
aF300.0
aF375.0
aF100.0
aF200.0
aF300.0
aF500.0
aF300.0
aF600.0
aF400.0
aF300.0
aF300.0
aF300.0
aF500.0
aF400.0
aF500.0
aF0.0
aF450.0
aF400.0
aF500.0
aF600.0
aF100.0
aF200.0
aF400.0
aF575.0
aF400.0
aF600.0
aF600.0
aF100.0
aF200.0
aF200.0
aF100.0
aF400.0
aF500.0
aF500.0
aF400.0
aF600.0
aF300.0
aF475.0
aF400.0
aF600.0
aF100.0
aF300.0
aF400.0
aF550.0
aF0.0
aF500.0
aF375.0
aF0.0
aF0.0
aF500.0
aF600.0
aF100.0
aF200.0
a(lp2
F-2.3450058648779994
aF-10.095618504515148
aF-4.274062311866029
aF-17.45845916997196
aF-38.72635134121239
aF-0.866169786919733
aF-9.82072614388152
aF-21.709746495778333
aF-3.22401224371092
aF-5.165160318981883
aF-20.10654408099074
aF-1.151628012955153
aF-1.4638170799674157
aF-0.45699579909311
aF-1.2023404706410905
aF-39.782392720042246
aF-0.783725712287681
aF-3.429110863186472
aF-1.7719939014420998
aF-6.679641698748044
aF-3.8972797236914425
aF-0.8998363507622273
aF-10.11066548532895
aF-4.8065155534346555
aF-0.5997009185898841
aF-1.21497409724632
aF-9.288182785406786
aF-13.62594447291606
aF-2.1410174157933093
aF-1.5364755962936831
aF-0.7308903777776777
aF-0.7021848979714697
aF-0.6903020318368243
aF-1.6706970167419875
aF-7.030980421073542
aF-1.6394266120682885
aF-5.993273782788263
aF-3.0671247360437057
aF-2.016044671978338
aF-0.9793522110421468
aF-1.7655380746011617
aF-0.5096684602047314
aF-16.699806829063117
aF-6.806438628737733
aF-13.093728302638548
aF-0.7643248655862065
aF-17.205895307394655
aF-23.45817611163642
aF-5.448623645562874
aF-2.4723529383954106
aF-6.497853361419174
aF-1.7646956214587968
aF-23.2522366062667
aF-1.7136218982524456
aF-3.3377021545665984
aF-0.8763786712181795
aF-0.5542360347922085
aF-0.8843391635140941
aF-3.051296359011138
a(lp3
S'SR2jtprime'
p4
ag4
aS'SR3j'
p5
ag5
ag5
ag4
ag5
ag5
ag4
ag4
ag5
ag5
ag4
ag4
ag4
ag5
ag4
ag4
ag5
ag5
ag5
ag4
ag5
ag5
ag4
ag5
ag4
ag5
ag4
ag5
ag4
ag5
ag5
ag4
ag4
ag4
ag4
ag5
ag5
ag4
ag4
ag4
ag5
ag5
ag5
ag5
ag5
ag5
ag5
ag5
ag4
ag5
ag5
ag4
ag4
ag4
ag4
ag4
ag4
atp6
.