((lp0
F1600.0
aF1400.0
aF1600.0
aF1000.0
aF1400.0
aF1000.0
aF1400.0
aF1200.0
aF1200.0
aF1200.0
aF1400.0
aF1400.0
aF1600.0
aF1000.0
aF1400.0
aF1000.0
aF1600.0
aF1200.0
aF1400.0
aF1400.0
aF1600.0
aF1400.0
aF1000.0
aF1600.0
aF1000.0
aF1200.0
aF1200.0
aF1000.0
aF1600.0
aF1600.0
aF1200.0
aF1600.0
aF1000.0
aF1600.0
aF1400.0
aF1600.0
aF1000.0
aF1400.0
aF1600.0
aF1000.0
aF1200.0
aF1600.0
aF1200.0
aF1400.0
aF1200.0
aF1200.0
aF1000.0
aF1600.0
aF1400.0
aF1200.0
a(lp1
F1460.0
aF1200.0
aF860.0
aF460.0
aF460.0
aF660.0
aF1300.0
aF160.0
aF660.0
aF110.0
aF160.0
aF660.0
aF1500.0
aF110.0
aF110.0
aF950.0
aF1550.0
aF1060.0
aF260.0
aF1260.0
aF1260.0
aF1390.0
aF860.0
aF260.0
aF260.0
aF460.0
aF1190.0
aF160.0
aF660.0
aF1590.0
aF1150.0
aF70.0
aF800.0
aF460.0
aF860.0
aF1060.0
aF70.0
aF1060.0
aF1400.0
aF900.0
aF70.0
aF160.0
aF260.0
aF1350.0
aF1000.0
aF860.0
aF990.0
aF110.0
aF70.0
aF1100.0
a(lp2
F0.6478178018966283
aF1.3945651181883891
aF1.612529342895415
aF6.197609072479451
aF2.4332699617053435
aF6.734373390208578
aF1.5099021265123405
aF1.4085098917481385
aF5.525439617640133
aF2.290987787534286
aF0.7802614478993039
aF3.0316833169875657
aF0.7033555503164038
aF3.045557972681464
aF1.3782643038541875
aF4.281766439248013
aF0.7477946990750848
aF2.707534132737314
aF1.4447221702079776
aF1.4433572506028174
aF1.1125293920167887
aF1.8001626468238612
aF4.642397198127828
aF0.6157535325850321
aF4.146232791259585
aF4.522333268869816
aF3.7340889595254727
aF1.9141197227933844
aF1.4362262916133968
aF0.7821006921721615
aF3.4677549688942118
aF1.0411403824011805
aF5.909162106294806
aF1.0549001361409167
aF3.2486246200733415
aF1.5637508963057405
aF5.378451774556727
aF2.644372639008378
aF0.6189835436318939
aF3.6299455619923933
aF3.608170688529025
aF0.31773811064598595
aF2.742422714206277
aF1.7049961632098614
aF3.2732706710097714
aF5.193802781353175
aF5.394726987859818
aF0.591518893109546
aF2.2014497547775824
aF2.9204466829333304
a(lp3
S'SR2jt'
p4
ag4
aS'SR4jt'
p5
aS'SR5j'
p6
ag5
ag6
ag4
ag5
aS'SR6jt'
p7
ag5
ag5
ag7
ag4
ag6
ag5
ag4
ag4
ag4
ag5
ag4
ag5
ag4
ag6
ag5
ag6
ag7
ag4
ag7
ag5
ag4
ag4
ag5
ag6
ag5
ag7
ag5
ag6
ag7
ag4
ag4
ag5
ag5
ag7
ag4
ag6
ag7
ag4
ag5
ag5
ag4
atp8
.