((lp0
F1450.0
aF1800.0
aF1850.0
aF1900.0
aF1500.0
aF700.0
aF1050.0
aF900.0
aF1950.0
aF1600.0
aF1100.0
aF800.0
aF1250.0
aF1000.0
aF1750.0
aF1600.0
aF1800.0
aF1300.0
aF650.0
aF950.0
aF2000.0
aF1500.0
aF1700.0
aF825.0
aF1300.0
aF1050.0
aF1700.0
aF1550.0
aF1550.0
aF812.0
aF1350.0
aF1400.0
aF1400.0
aF1250.0
aF1750.0
aF1850.0
aF712.0
aF1500.0
aF1500.0
aF1700.0
aF1650.0
aF1750.0
aF1750.0
aF1950.0
aF1450.0
aF925.0
aF1450.0
aF1700.0
aF900.0
aF1200.0
aF612.0
aF1400.0
aF1600.0
aF850.0
aF1500.0
aF2000.0
aF2000.0
aF1600.0
aF1700.0
aF1800.0
aF1000.0
aF1150.0
aF1400.0
aF1650.0
aF1950.0
aF1600.0
aF1750.0
aF1850.0
aF1900.0
aF1350.0
aF1150.0
aF850.0
aF1450.0
aF1200.0
aF1550.0
aF1100.0
aF1650.0
aF1550.0
aF1650.0
aF950.0
aF2000.0
aF1900.0
aF1900.0
aF725.0
aF750.0
aF1100.0
aF1850.0
aF1800.0
aF625.0
aF1550.0
aF1800.0
aF912.0
aF1400.0
aF1950.0
a(lp1
F350.0
aF0.0
aF750.0
aF100.0
aF100.0
aF500.0
aF750.0
aF500.0
aF450.0
aF0.0
aF900.0
aF600.0
aF550.0
aF800.0
aF50.0
aF400.0
aF800.0
aF900.0
aF550.0
aF850.0
aF200.0
aF500.0
aF500.0
aF775.0
aF700.0
aF550.0
aF700.0
aF650.0
aF50.0
aF787.0
aF850.0
aF800.0
aF200.0
aF750.0
aF250.0
aF350.0
aF687.0
aF300.0
aF900.0
aF900.0
aF550.0
aF650.0
aF450.0
aF650.0
aF150.0
aF875.0
aF750.0
aF300.0
aF700.0
aF600.0
aF587.0
aF0.0
aF600.0
aF750.0
aF700.0
aF0.0
aF600.0
aF200.0
aF100.0
aF200.0
aF600.0
aF650.0
aF400.0
aF150.0
aF250.0
aF800.0
aF850.0
aF150.0
aF700.0
aF650.0
aF850.0
aF550.0
aF550.0
aF800.0
aF450.0
aF700.0
aF750.0
aF250.0
aF350.0
aF650.0
aF400.0
aF500.0
aF300.0
aF675.0
aF650.0
aF500.0
aF550.0
aF600.0
aF575.0
aF850.0
aF400.0
aF887.0
aF600.0
aF50.0
a(lp2
F-5.2394220508846505
aF-1.2175968583775143
aF-0.6010485157903198
aF-0.7296555753764684
aF-4.840100175268934
aF-26.470008841159753
aF-2.5344474175898695
aF-30.589113348009697
aF-0.5609655484524433
aF-3.0323365086732603
aF-0.5259448453479731
aF-8.198717278725534
aF-7.778422999682364
aF-1.0583803562002319
aF-1.597611125404752
aF-2.5338389440574365
aF-0.545006524800899
aF-1.087397608926113
aF-29.294084513879195
aF-1.0359054127188836
aF-0.4634060810087738
aF-3.019440505805705
aF-1.5685570396472044
aF-2.202347074953424
aF-3.4044842775910076
aF-22.666444420127018
aF-0.9933348564616178
aF-1.8872660283135287
aF-3.820680687185207
aF-1.7449816141093462
aF-1.5755892954927706
aF-1.4752444890003416
aF-7.841816219914357
aF-3.811710811128416
aF-1.4745102450550236
aF-0.9285596886641453
aF-4.332029580042202
aF-4.2330578146648135
aF-0.7330899783536019
aF-0.5777000265075628
aF-1.6516958332365577
aF-1.0338320779898087
aF-1.4235078740480063
aF-0.5374643037176964
aF-6.064709445663049
aF-0.7542460773269664
aF-1.9347097088254712
aF-1.925207436761119
aF-2.9135250178979097
aF-8.745518896927306
aF-24.699238736786835
aF-8.095412246761931
aF-1.6724187141135038
aF-2.8708786490841245
aF-2.1596620651616663
aF-0.4362221434443394
aF-0.43859054724401
aF-3.012443735428646
aF-1.998179393211159
aF-1.2433063238416158
aF-14.645920656064687
aF-9.03906459582148
aF-6.435360760192031
aF-2.496606102262897
aF-0.5742877466502984
aF-1.0667110863578548
aF-0.5504434824377811
aF-0.9854854094368687
aF-0.5755844358324935
aF-3.6318411141492337
aF-1.1224244614593752
aF-14.674862038901804
aF-3.8248742212126547
aF-2.4010720634587
aF-2.7604307705696716
aF-5.677050382243775
aF-0.9835427980137703
aF-3.8098004078898184
aF-2.259494952662345
aF-6.541505124043843
aF-0.45219766061313205
aF-0.6922445880191732
aF-0.7425179032208503
aF-7.090841087742242
aF-10.560350249525802
aF-21.636131939563136
aF-0.8397457495006936
aF-0.9519282722652997
aF-21.17632708235789
aF-1.0098442804589194
aF-1.1620915310395834
aF-0.6290725169876624
aF-4.06731108184574
aF-0.5609834227216797
a(lp3
S'SR5jt'
p4
aS'SR4jtprime'
p5
ag5
ag5
ag5
aS'SR3j'
p6
aS'SR4jl'
p7
ag7
ag5
ag5
ag6
ag6
aS'SR4jm'
p8
ag6
ag5
ag5
ag5
ag7
ag6
ag6
ag5
ag8
ag5
ag6
ag7
ag7
ag5
ag8
ag5
ag6
ag7
ag7
ag4
ag7
ag5
ag5
ag6
ag4
ag7
ag8
ag5
ag5
ag5
ag5
ag4
ag6
ag8
ag5
ag6
ag7
ag6
ag4
ag4
ag6
ag8
ag5
ag5
ag5
ag5
ag5
ag7
ag7
ag8
ag5
ag5
ag8
ag8
ag5
ag5
ag8
ag7
ag7
ag8
ag7
ag4
ag7
ag8
ag5
ag5
ag7
ag5
ag5
ag5
ag6
ag6
ag7
ag5
ag5
ag6
ag8
ag5
ag6
ag8
ag5
atp9
.