(dp0
S'GG_direct'
p1
(dp2
I370900
(I200
I0
tp3
sI370901
(I400
I0
tp4
sI370902
(I600
I0
tp5
sI370903
(I612
I587
tp6
sI370904
(I625
I575
tp7
sI370905
(I650
I550
tp8
sI370906
(I700
I500
tp9
sI370907
(I712
I687
tp10
sI370908
(I725
I675
tp11
sI370909
(I750
I650
tp12
sI370910
(I800
I0
tp13
sI370911
(I800
I600
tp14
sI370912
(I812
I787
tp15
sI370913
(I825
I775
tp16
sI370914
(I850
I550
tp17
sI370915
(I850
I750
tp18
sI370916
(I900
I500
tp19
sI370917
(I900
I700
tp20
sI370918
(I912
I887
tp21
sI370919
(I925
I875
tp22
sI370920
(I950
I650
tp23
sI370921
(I950
I850
tp24
sI370922
(I1000
I0
tp25
sI370923
(I1000
I600
tp26
sI370924
(I1000
I800
tp27
sI370925
(I1050
I550
tp28
sI370926
(I1050
I750
tp29
sI370927
(I1100
I100
tp30
sI370928
(I1100
I300
tp31
sI370929
(I1100
I500
tp32
sI370930
(I1100
I700
tp33
sI370931
(I1100
I900
tp34
sI370932
(I1150
I50
tp35
sI370933
(I1150
I250
tp36
sI370934
(I1150
I450
tp37
sI370935
(I1150
I650
tp38
sI370936
(I1150
I850
tp39
sI370937
(I1200
I0
tp40
sI370938
(I1200
I200
tp41
sI370939
(I1200
I400
tp42
sI370940
(I1200
I600
tp43
sI370941
(I1200
I800
tp44
sI370942
(I1250
I150
tp45
sI370943
(I1250
I350
tp46
sI370944
(I1250
I550
tp47
sI370945
(I1250
I750
tp48
sI370946
(I1300
I100
tp49
sI370947
(I1300
I300
tp50
sI370948
(I1300
I500
tp51
sI370949
(I1300
I700
tp52
sI370950
(I1300
I900
tp53
sI370951
(I1350
I50
tp54
sI370952
(I1350
I250
tp55
sI370953
(I1350
I450
tp56
sI370954
(I1350
I650
tp57
sI370955
(I1350
I850
tp58
sI370956
(I1400
I0
tp59
sI370957
(I1400
I200
tp60
sI370958
(I1400
I400
tp61
sI370959
(I1400
I600
tp62
sI370960
(I1400
I800
tp63
sI370961
(I1450
I150
tp64
sI370962
(I1450
I350
tp65
sI370963
(I1450
I550
tp66
sI370964
(I1450
I750
tp67
sI370965
(I1500
I100
tp68
sI370966
(I1500
I300
tp69
sI370967
(I1500
I500
tp70
sI370968
(I1500
I700
tp71
sI370969
(I1500
I900
tp72
sI370970
(I1550
I50
tp73
sI370971
(I1550
I250
tp74
sI370972
(I1550
I450
tp75
sI370973
(I1550
I650
tp76
sI370974
(I1550
I850
tp77
sI370975
(I1600
I0
tp78
sI370976
(I1600
I200
tp79
sI370977
(I1600
I400
tp80
sI370978
(I1600
I600
tp81
sI370979
(I1600
I800
tp82
sI370980
(I1650
I150
tp83
sI370981
(I1650
I350
tp84
sI370982
(I1650
I550
tp85
sI370983
(I1650
I750
tp86
sI370984
(I1700
I100
tp87
sI370985
(I1700
I300
tp88
sI370986
(I1700
I500
tp89
sI370987
(I1700
I700
tp90
sI370988
(I1700
I900
tp91
sI370989
(I1750
I50
tp92
sI370990
(I1750
I250
tp93
sI370991
(I1750
I450
tp94
sI370992
(I1750
I650
tp95
sI370993
(I1750
I850
tp96
sI370994
(I1800
I0
tp97
sI370995
(I1800
I200
tp98
sI370996
(I1800
I400
tp99
sI370997
(I1800
I600
tp100
sI370998
(I1800
I800
tp101
sI370999
(I1850
I150
tp102
sI371000
(I1850
I350
tp103
sI371001
(I1850
I550
tp104
sI371002
(I1850
I750
tp105
sI371003
(I1900
I100
tp106
sI371004
(I1900
I300
tp107
sI371005
(I1900
I500
tp108
sI371006
(I1900
I700
tp109
sI371007
(I1900
I900
tp110
sI371008
(I1950
I50
tp111
sI371009
(I1950
I250
tp112
sI371010
(I1950
I450
tp113
sI371011
(I1950
I650
tp114
sI371012
(I1950
I850
tp115
sI371013
(I2000
I0
tp116
sI371014
(I2000
I200
tp117
sI371015
(I2000
I400
tp118
sI371016
(I2000
I600
tp119
sI371017
(I2000
I800
tp120
sI371018
(I112
I87
tp121
sI371019
(I125
I75
tp122
sI371020
(I150
I50
tp123
sI371021
(I212
I187
tp124
sI371022
(I225
I175
tp125
sI371023
(I250
I150
tp126
sI371024
(I300
I100
tp127
sI371025
(I312
I287
tp128
sI371026
(I325
I275
tp129
sI371027
(I350
I50
tp130
sI371028
(I350
I250
tp131
sI371029
(I400
I200
tp132
sI371030
(I412
I387
tp133
sI371031
(I425
I375
tp134
sI371032
(I450
I150
tp135
sI371033
(I450
I350
tp136
sI371034
(I500
I100
tp137
sI371035
(I500
I300
tp138
sI371036
(I512
I487
tp139
sI371037
(I525
I475
tp140
sI371038
(I550
I50
tp141
sI371039
(I550
I250
tp142
sI371040
(I550
I450
tp143
sI371041
(I600
I200
tp144
sI371042
(I600
I400
tp145
sI371043
(I650
I150
tp146
sI371044
(I650
I350
tp147
sI371045
(I662
I637
tp148
sI371046
(I675
I625
tp149
sI371047
(I700
I100
tp150
sI371048
(I700
I300
tp151
sI371049
(I700
I600
tp152
sI371050
(I750
I50
tp153
sI371051
(I750
I250
tp154
sI371052
(I750
I450
tp155
sI371053
(I750
I550
tp156
sI371054
(I762
I737
tp157
sI371055
(I775
I725
tp158
sI371056
(I800
I200
tp159
sI371057
(I800
I400
tp160
sI371058
(I800
I500
tp161
sI371059
(I800
I700
tp162
sI371060
(I850
I150
tp163
sI371061
(I850
I350
tp164
sI371062
(I850
I450
tp165
sI371063
(I850
I650
tp166
sI371064
(I862
I837
tp167
sI371065
(I875
I825
tp168
sI371066
(I900
I100
tp169
sI371067
(I900
I300
tp170
sI371068
(I900
I400
tp171
sI371069
(I900
I600
tp172
sI371070
(I900
I800
tp173
sI371071
(I950
I50
tp174
sI371072
(I950
I250
tp175
sI371073
(I950
I350
tp176
sI371074
(I950
I450
tp177
sI371075
(I950
I550
tp178
sI371076
(I950
I750
tp179
sI371077
(I1000
I200
tp180
sI371078
(I1000
I300
tp181
sI371079
(I1000
I400
tp182
sI371080
(I1000
I500
tp183
sI371081
(I1000
I700
tp184
sI371082
(I1012
I987
tp185
sI371083
(I1025
I975
tp186
sI371084
(I1050
I150
tp187
sI371085
(I1050
I250
tp188
sI371086
(I1050
I350
tp189
sI371087
(I1050
I450
tp190
sI371088
(I1050
I650
tp191
sI371089
(I1050
I950
tp192
sI371090
(I1100
I200
tp193
sI371091
(I1100
I400
tp194
sI371092
(I1100
I600
tp195
sI371093
(I1150
I150
tp196
sI371094
(I1150
I350
tp197
sI371095
(I1150
I550
tp198
sI371096
(I1200
I100
tp199
sI371097
(I1200
I300
tp200
sI371098
(I1200
I500
tp201
sI371099
(I1200
I1000
tp202
sI371100
(I1250
I50
tp203
sI371101
(I1250
I250
tp204
sI371102
(I1250
I450
tp205
sI371103
(I1250
I950
tp206
sI371104
(I1300
I0
tp207
sI371105
(I1300
I200
tp208
sI371106
(I1300
I400
tp209
sI371107
(I1350
I150
tp210
sI371108
(I1350
I350
tp211
sI371109
(I1400
I100
tp212
sI371110
(I1400
I300
tp213
sI371111
(I1400
I1000
tp214
sI371112
(I1450
I50
tp215
sI371113
(I1450
I250
tp216
sI371114
(I1450
I950
tp217
sI371115
(I1500
I0
tp218
sI371116
(I1500
I200
tp219
sI371117
(I1550
I150
tp220
sI371118
(I1600
I100
tp221
sI371119
(I1600
I1000
tp222
sI371120
(I1650
I50
tp223
sI371121
(I1650
I950
tp224
sI371122
(I1700
I0
tp225
sI371123
(I1800
I1000
tp226
sI371124
(I1850
I950
tp227
sI371125
(I2000
I1000
tp228
sI406000
(I1500
I0
tp229
ssS'Gtt'
p230
(dp231
sS'GG_onestepCC'
p232
(dp233
I371712
(I400
I350
I60
tp234
sI371713
(I400
I390
I60
tp235
sI371714
(I600
I70
I60
tp236
sI371715
(I600
I110
I60
tp237
sI371716
(I600
I160
I60
tp238
sI371717
(I600
I260
I60
tp239
sI371718
(I600
I400
I60
tp240
sI371719
(I600
I460
I60
tp241
sI371720
(I600
I500
I60
tp242
sI371721
(I600
I550
I60
tp243
sI371722
(I600
I590
I60
tp244
sI371723
(I800
I70
I60
tp245
sI371724
(I800
I110
I60
tp246
sI371725
(I800
I160
I60
tp247
sI371726
(I800
I260
I60
tp248
sI371727
(I800
I460
I60
tp249
sI371728
(I800
I600
I60
tp250
sI371729
(I800
I660
I60
tp251
sI371730
(I800
I700
I60
tp252
sI371731
(I800
I750
I60
tp253
sI371732
(I800
I790
I60
tp254
sI371733
(I1300
I70
I60
tp255
sI371734
(I1300
I110
I60
tp256
sI371735
(I1300
I160
I60
tp257
sI371736
(I1300
I260
I60
tp258
sI371737
(I1300
I460
I60
tp259
sI371738
(I1300
I660
I60
tp260
sI371739
(I1300
I860
I60
tp261
sI371740
(I1300
I1060
I60
tp262
sI371741
(I1300
I1100
I60
tp263
sI371742
(I1300
I1200
I60
tp264
sI371743
(I1300
I1250
I60
tp265
sI371744
(I1300
I1260
I60
tp266
sI371745
(I1300
I1290
I60
tp267
sI371746
(I1500
I70
I60
tp268
sI371747
(I1500
I110
I60
tp269
sI371748
(I1500
I160
I60
tp270
sI371749
(I1500
I260
I60
tp271
sI371750
(I1500
I460
I60
tp272
sI371751
(I1500
I660
I60
tp273
sI371752
(I1500
I860
I60
tp274
sI371753
(I1500
I1060
I60
tp275
sI371754
(I1500
I1260
I60
tp276
sI371755
(I1500
I1300
I60
tp277
sI371756
(I1500
I1400
I60
tp278
sI371757
(I1500
I1450
I60
tp279
sI371758
(I1500
I1460
I60
tp280
sI371759
(I1500
I1490
I60
tp281
sI371760
(I1800
I70
I60
tp282
sI371761
(I1800
I110
I60
tp283
sI371762
(I1800
I160
I60
tp284
sI371763
(I1800
I260
I60
tp285
sI371764
(I1800
I460
I60
tp286
sI371765
(I1800
I660
I60
tp287
sI371766
(I1800
I860
I60
tp288
sI371767
(I1800
I1060
I60
tp289
sI371768
(I1800
I1260
I60
tp290
sI371769
(I1800
I1460
I60
tp291
sI371770
(I1800
I1600
I60
tp292
sI371771
(I1800
I1660
I60
tp293
sI371772
(I1800
I1700
I60
tp294
sI371773
(I1800
I1750
I60
tp295
sI371774
(I1800
I1790
I60
tp296
sI371775
(I2000
I70
I60
tp297
sI371776
(I2000
I110
I60
tp298
sI371777
(I2000
I160
I60
tp299
sI371778
(I2000
I260
I60
tp300
sI371779
(I2000
I460
I60
tp301
sI371780
(I2000
I660
I60
tp302
sI371781
(I2000
I860
I60
tp303
sI371782
(I2000
I1060
I60
tp304
sI371783
(I2000
I1260
I60
tp305
sI371784
(I2000
I1460
I60
tp306
sI371785
(I2000
I1660
I60
tp307
sI371786
(I2000
I1800
I60
tp308
sI371787
(I2000
I1860
I60
tp309
sI371788
(I2000
I1900
I60
tp310
sI371789
(I2000
I1950
I60
tp311
sI371790
(I2000
I1990
I60
tp312
sI371500
(I237
I226
I215
tp313
sI371501
(I265
I225
I185
tp314
sI371502
(I317
I306
I295
tp315
sI371503
(I345
I305
I265
tp316
sI371504
(I397
I386
I375
tp317
sI371505
(I425
I385
I345
tp318
sI371506
(I477
I466
I455
tp319
sI371507
(I505
I465
I425
tp320
sI371508
(I557
I546
I535
tp321
sI371509
(I585
I545
I505
tp322
sI371510
(I637
I626
I615
tp323
sI371511
(I665
I625
I585
tp324
sI371512
(I717
I706
I695
tp325
sI371513
(I745
I625
I505
tp326
sI371514
(I745
I705
I665
tp327
sI371515
(I785
I705
I625
tp328
sI371516
(I797
I786
I775
tp329
sI371517
(I825
I785
I745
tp330
sI371518
(I877
I866
I855
tp331
sI371519
(I905
I705
I505
tp332
sI371520
(I905
I865
I825
tp333
sI371521
(I945
I785
I625
tp334
sI371522
(I957
I946
I935
tp335
sI371523
(I985
I865
I745
tp336
sI371524
(I985
I945
I905
tp337
sI371525
(I1025
I945
I865
tp338
sI371526
(I1037
I1026
I1015
tp339
sI371527
(I1065
I1025
I985
tp340
sI371528
(I1065
I545
I25
tp341
sI371529
(I1065
I785
I505
tp342
sI371530
(I1105
I625
I145
tp343
sI371531
(I1105
I865
I625
tp344
sI371532
(I1145
I705
I265
tp345
sI371533
(I1145
I945
I745
tp346
sI371534
(I1185
I1025
I865
tp347
sI371535
(I1185
I785
I385
tp348
sI371536
(I1225
I1105
I985
tp349
sI371537
(I1225
I625
I25
tp350
sI371538
(I1225
I865
I505
tp351
sI371539
(I1265
I705
I145
tp352
sI371540
(I1265
I945
I625
tp353
sI371541
(I1305
I1025
I745
tp354
sI371542
(I1305
I785
I265
tp355
sI371543
(I1345
I1105
I865
tp356
sI371544
(I1345
I865
I385
tp357
sI371545
(I1385
I1185
I985
tp358
sI371546
(I1385
I705
I25
tp359
sI371547
(I1385
I945
I505
tp360
sI371548
(I1425
I1025
I625
tp361
sI371549
(I1425
I785
I145
tp362
sI371550
(I1465
I1105
I745
tp363
sI371551
(I1465
I865
I265
tp364
sI371552
(I1505
I1185
I865
tp365
sI371553
(I1505
I945
I385
tp366
sI371554
(I1545
I1025
I505
tp367
sI371555
(I1545
I1265
I985
tp368
sI371556
(I1545
I785
I25
tp369
sI371557
(I1585
I1105
I625
tp370
sI371558
(I1585
I865
I145
tp371
sI371559
(I1625
I1185
I745
tp372
sI371560
(I1625
I945
I265
tp373
sI371561
(I1665
I1025
I385
tp374
sI371562
(I1665
I1265
I865
tp375
sI371563
(I265
I145
I25
tp376
sI371564
(I305
I225
I145
tp377
sI371565
(I425
I225
I25
tp378
sI371566
(I465
I305
I145
tp379
sI371567
(I505
I385
I265
tp380
sI371568
(I545
I465
I385
tp381
sI371569
(I585
I305
I25
tp382
sI371570
(I625
I385
I145
tp383
sI371571
(I665
I465
I265
tp384
sI371572
(I705
I545
I385
tp385
sI371573
(I745
I385
I25
tp386
sI371574
(I785
I465
I145
tp387
sI371575
(I825
I545
I265
tp388
sI371576
(I865
I625
I385
tp389
sI371577
(I905
I465
I25
tp390
sI371578
(I945
I545
I145
tp391
sI371579
(I985
I625
I265
tp392
sI371580
(I1025
I705
I385
tp393
sI371581
(I1705
I1105
I505
tp394
sI371582
(I1705
I1345
I985
tp395
sI371583
(I1705
I865
I25
tp396
sI371584
(I1745
I1185
I625
tp397
sI371585
(I1745
I945
I145
tp398
sI371586
(I1785
I1025
I265
tp399
sI371587
(I1785
I1265
I745
tp400
sI371588
(I1825
I1105
I385
tp401
sI371589
(I1825
I1345
I865
tp402
sI371590
(I1865
I1185
I505
tp403
sI371591
(I1865
I945
I25
tp404
sI371592
(I1905
I1025
I145
tp405
sI371593
(I1905
I1265
I625
tp406
sI371594
(I1945
I1105
I265
tp407
sI371595
(I1945
I1345
I745
tp408
sI371596
(I1985
I1185
I385
tp409
sI371597
(I2025
I1025
I25
tp410
sI371598
(I2025
I1265
I505
tp411
sI371650
(I1000
I70
I60
tp412
sI371651
(I1000
I110
I60
tp413
sI371652
(I1000
I160
I60
tp414
sI371653
(I1000
I260
I60
tp415
sI371654
(I1000
I460
I60
tp416
sI371655
(I1000
I660
I60
tp417
sI371656
(I1000
I800
I60
tp418
sI371657
(I1000
I860
I60
tp419
sI371658
(I1000
I900
I60
tp420
sI371659
(I1000
I950
I60
tp421
sI371660
(I1000
I990
I60
tp422
sI371661
(I1200
I70
I60
tp423
sI371662
(I1200
I110
I60
tp424
sI371663
(I1200
I160
I60
tp425
sI371664
(I1200
I260
I60
tp426
sI371665
(I1200
I460
I60
tp427
sI371666
(I1200
I660
I60
tp428
sI371667
(I1200
I860
I60
tp429
sI371668
(I1200
I1000
I60
tp430
sI371669
(I1200
I1060
I60
tp431
sI371670
(I1200
I1100
I60
tp432
sI371671
(I1200
I1150
I60
tp433
sI371672
(I1200
I1190
I60
tp434
sI371673
(I1400
I70
I60
tp435
sI371674
(I1400
I110
I60
tp436
sI371675
(I1400
I160
I60
tp437
sI371676
(I1400
I260
I60
tp438
sI371677
(I1400
I460
I60
tp439
sI371678
(I1400
I660
I60
tp440
sI371679
(I1400
I860
I60
tp441
sI371680
(I1400
I1060
I60
tp442
sI371681
(I1400
I1200
I60
tp443
sI371682
(I1400
I1260
I60
tp444
sI371683
(I1400
I1300
I60
tp445
sI371684
(I1400
I1350
I60
tp446
sI371685
(I1400
I1390
I60
tp447
sI371686
(I1600
I70
I60
tp448
sI371687
(I1600
I110
I60
tp449
sI371688
(I1600
I160
I60
tp450
sI371689
(I1600
I260
I60
tp451
sI371690
(I1600
I460
I60
tp452
sI371691
(I1600
I660
I60
tp453
sI371692
(I1600
I860
I60
tp454
sI371693
(I1600
I1060
I60
tp455
sI371694
(I1600
I1260
I60
tp456
sI371695
(I1600
I1400
I60
tp457
sI371696
(I1600
I1460
I60
tp458
sI371697
(I1600
I1500
I60
tp459
sI371698
(I1600
I1550
I60
tp460
sI371699
(I1600
I1590
I60
tp461
sI371700
(I200
I70
I60
tp462
sI371701
(I200
I100
I60
tp463
sI371702
(I200
I110
I60
tp464
sI371703
(I200
I150
I60
tp465
sI371704
(I200
I160
I60
tp466
sI371705
(I200
I190
I60
tp467
sI371706
(I400
I70
I60
tp468
sI371707
(I400
I110
I60
tp469
sI371708
(I400
I160
I60
tp470
sI371709
(I400
I200
I60
tp471
sI371710
(I400
I260
I60
tp472
sI371711
(I400
I300
I60
tp473
ssS'SS_direct'
p474
(dp475
I370700
(I200
I0
tp476
sI370701
(I400
I0
tp477
sI370702
(I400
I375
tp478
sI370703
(I425
I375
tp479
sI370704
(I400
I350
tp480
sI370705
(I400
I300
tp481
sI370706
(I500
I475
tp482
sI370707
(I500
I450
tp483
sI370708
(I500
I400
tp484
sI370709
(I600
I0
tp485
sI370710
(I600
I500
tp486
sI370711
(I600
I400
tp487
sI370712
(I600
I575
tp488
sI370713
(I600
I550
tp489
sI370714
(I800
I100
tp490
sI370715
(I800
I300
tp491
sI370716
(I800
I500
tp492
sI370717
(I800
I600
tp493
sI370718
(I900
I0
tp494
sI370719
(I900
I100
tp495
sI370720
(I900
I200
tp496
sI370721
(I900
I300
tp497
sI370722
(I900
I400
tp498
sI370723
(I800
I0
tp499
sI370724
(I800
I200
tp500
sI370725
(I800
I400
tp501
sI370726
(I900
I500
tp502
sI370727
(I900
I600
tp503
sI370728
(I1000
I100
tp504
sI370729
(I1000
I300
tp505
sI370730
(I1000
I500
tp506
sI370731
(I1000
I600
tp507
sI370732
(I1100
I0
tp508
sI370733
(I1100
I100
tp509
sI370734
(I1100
I200
tp510
sI370735
(I1100
I300
tp511
sI370736
(I1000
I0
tp512
sI370737
(I1000
I200
tp513
sI370738
(I1000
I400
tp514
sI370739
(I1100
I400
tp515
sI370740
(I1100
I500
tp516
sI370741
(I1100
I600
tp517
sI370742
(I1200
I100
tp518
sI370743
(I1200
I300
tp519
sI370744
(I1200
I400
tp520
sI370745
(I1200
I500
tp521
sI370746
(I1200
I600
tp522
sI370747
(I1300
I0
tp523
sI370748
(I1300
I100
tp524
sI370749
(I1200
I0
tp525
sI370750
(I1200
I200
tp526
sI370751
(I1300
I200
tp527
sI370752
(I1300
I300
tp528
sI370753
(I1300
I400
tp529
sI370754
(I1300
I500
tp530
sI370755
(I1300
I600
tp531
sI370756
(I1400
I100
tp532
sI370757
(I1400
I200
tp533
sI370758
(I1400
I300
tp534
sI370759
(I1400
I400
tp535
sI370760
(I1400
I500
tp536
sI370761
(I1400
I600
tp537
sI370762
(I1400
I0
tp538
sI370763
(I1500
I0
tp539
sI370764
(I1500
I100
tp540
sI370765
(I1500
I200
tp541
sI370766
(I1500
I300
tp542
sI370767
(I1500
I400
tp543
sI370768
(I1500
I500
tp544
sI370769
(I1500
I600
tp545
sI370770
(I1600
I100
tp546
sI370771
(I1600
I200
tp547
sI370772
(I1600
I300
tp548
sI370773
(I1600
I400
tp549
sI370774
(I1600
I500
tp550
sI370775
(I1600
I0
tp551
sI370776
(I1600
I600
tp552
sI370777
(I200
I100
tp553
sI370778
(I200
I175
tp554
sI370779
(I200
I150
tp555
sI370780
(I300
I0
tp556
sI370781
(I300
I100
tp557
sI370782
(I300
I200
tp558
sI370783
(I300
I275
tp559
sI370784
(I300
I250
tp560
sI370785
(I400
I100
tp561
sI370786
(I400
I200
tp562
sI370787
(I500
I0
tp563
sI370788
(I500
I100
tp564
sI370789
(I500
I200
tp565
sI370790
(I500
I300
tp566
sI370791
(I600
I100
tp567
sI370792
(I600
I200
tp568
sI370793
(I600
I300
tp569
sI370794
(I700
I0
tp570
sI370795
(I700
I100
tp571
sI370796
(I700
I200
tp572
sI370797
(I700
I300
tp573
sI370798
(I700
I400
tp574
sI370799
(I700
I500
tp575
sI370800
(I700
I600
tp576
sI370801
(I600
I300
tp577
sI370802
(I600
I500
tp578
sI370803
(I650
I250
tp579
sI370804
(I650
I450
tp580
sI370805
(I700
I200
tp581
sI370806
(I700
I400
tp582
sI370807
(I750
I150
tp583
sI370808
(I750
I350
tp584
sI370809
(I800
I100
tp585
sI370810
(I800
I300
tp586
sI370811
(I850
I50
tp587
sI370812
(I850
I250
tp588
sI370813
(I900
I0
tp589
sI370814
(I900
I200
tp590
sI370815
(I950
I150
tp591
sI370816
(I1000
I100
tp592
sI370817
(I1050
I50
tp593
sI370818
(I1100
I0
tp594
ss.