(dp0
S'GG_N2'
p1
(dp2
I370000
(I665
I185
I1
tp3
sI370001
(I640
I360
I1
tp4
sI370002
(I740
I260
I1
tp5
sI370003
(I845
I155
I1
tp6
sI370004
(I610
I540
I1
tp7
sI370005
(I715
I435
I1
tp8
sI370006
(I815
I335
I1
tp9
sI370007
(I920
I230
I1
tp10
sI370008
(I1020
I130
I1
tp11
sI370009
(I685
I615
I1
tp12
sI370010
(I790
I510
I1
tp13
sI370011
(I890
I410
I1
tp14
sI370012
(I995
I305
I1
tp15
sI370013
(I1095
I205
I1
tp16
sI370014
(I1200
I100
I1
tp17
sI370015
(I835
I765
I1
tp18
sI370016
(I940
I660
I1
tp19
sI370017
(I1040
I560
I1
tp20
sI370018
(I1145
I455
I1
tp21
sI370019
(I1245
I355
I1
tp22
sI370020
(I1350
I250
I1
tp23
sI370021
(I1450
I150
I1
tp24
sI370022
(I985
I915
I1
tp25
sI370023
(I1090
I810
I1
tp26
sI370024
(I1190
I710
I1
tp27
sI370025
(I1295
I605
I1
tp28
sI370026
(I1395
I505
I1
tp29
sI370027
(I1500
I400
I1
tp30
sI370028
(I1600
I300
I1
tp31
sI370029
(I1705
I195
I1
tp32
sI370030
(I1135
I1065
I1
tp33
sI370031
(I1240
I960
I1
tp34
sI370032
(I1340
I860
I1
tp35
sI370033
(I1445
I755
I1
tp36
sI370034
(I1545
I655
I1
tp37
sI370035
(I1650
I550
I1
tp38
sI370036
(I1750
I450
I1
tp39
sI370037
(I1285
I1215
I1
tp40
sI370038
(I1390
I1110
I1
tp41
sI370039
(I1490
I1010
I1
tp42
sI370040
(I1595
I905
I1
tp43
sI370041
(I1695
I805
I1
tp44
sI370042
(I1800
I700
I1
tp45
sI370043
(I1540
I1260
I1
tp46
sI370044
(I1640
I1160
I1
tp47
sI370045
(I1745
I1055
I1
tp48
ssS'GG_onestepCC'
p49
(dp50
I371712
(I400
I350
I60
tp51
sI371713
(I400
I390
I60
tp52
sI371714
(I600
I70
I60
tp53
sI371715
(I600
I110
I60
tp54
sI371716
(I600
I160
I60
tp55
sI371717
(I600
I260
I60
tp56
sI371718
(I600
I400
I60
tp57
sI371719
(I600
I460
I60
tp58
sI371720
(I600
I500
I60
tp59
sI371721
(I600
I550
I60
tp60
sI371722
(I600
I590
I60
tp61
sI371723
(I800
I70
I60
tp62
sI371724
(I800
I110
I60
tp63
sI371725
(I800
I160
I60
tp64
sI371726
(I800
I260
I60
tp65
sI371727
(I800
I460
I60
tp66
sI371728
(I800
I600
I60
tp67
sI371729
(I800
I660
I60
tp68
sI371730
(I800
I700
I60
tp69
sI371731
(I800
I750
I60
tp70
sI371732
(I800
I790
I60
tp71
sI371733
(I1300
I70
I60
tp72
sI371734
(I1300
I110
I60
tp73
sI371735
(I1300
I160
I60
tp74
sI371736
(I1300
I260
I60
tp75
sI371737
(I1300
I460
I60
tp76
sI371738
(I1300
I660
I60
tp77
sI371739
(I1300
I860
I60
tp78
sI371740
(I1300
I1060
I60
tp79
sI371741
(I1300
I1100
I60
tp80
sI371742
(I1300
I1200
I60
tp81
sI371743
(I1300
I1250
I60
tp82
sI371744
(I1300
I1260
I60
tp83
sI371745
(I1300
I1290
I60
tp84
sI371746
(I1500
I70
I60
tp85
sI371747
(I1500
I110
I60
tp86
sI371748
(I1500
I160
I60
tp87
sI371749
(I1500
I260
I60
tp88
sI371750
(I1500
I460
I60
tp89
sI371751
(I1500
I660
I60
tp90
sI371752
(I1500
I860
I60
tp91
sI371753
(I1500
I1060
I60
tp92
sI371754
(I1500
I1260
I60
tp93
sI371755
(I1500
I1300
I60
tp94
sI371756
(I1500
I1400
I60
tp95
sI371757
(I1500
I1450
I60
tp96
sI371758
(I1500
I1460
I60
tp97
sI371759
(I1500
I1490
I60
tp98
sI371760
(I1800
I70
I60
tp99
sI371761
(I1800
I110
I60
tp100
sI371762
(I1800
I160
I60
tp101
sI371763
(I1800
I260
I60
tp102
sI371764
(I1800
I460
I60
tp103
sI371765
(I1800
I660
I60
tp104
sI371766
(I1800
I860
I60
tp105
sI371767
(I1800
I1060
I60
tp106
sI371768
(I1800
I1260
I60
tp107
sI371769
(I1800
I1460
I60
tp108
sI371770
(I1800
I1600
I60
tp109
sI371771
(I1800
I1660
I60
tp110
sI371772
(I1800
I1700
I60
tp111
sI371773
(I1800
I1750
I60
tp112
sI371774
(I1800
I1790
I60
tp113
sI371775
(I2000
I70
I60
tp114
sI371776
(I2000
I110
I60
tp115
sI371777
(I2000
I160
I60
tp116
sI371778
(I2000
I260
I60
tp117
sI371779
(I2000
I460
I60
tp118
sI371780
(I2000
I660
I60
tp119
sI371781
(I2000
I860
I60
tp120
sI371782
(I2000
I1060
I60
tp121
sI371783
(I2000
I1260
I60
tp122
sI371784
(I2000
I1460
I60
tp123
sI371785
(I2000
I1660
I60
tp124
sI371786
(I2000
I1800
I60
tp125
sI371787
(I2000
I1860
I60
tp126
sI371788
(I2000
I1900
I60
tp127
sI371789
(I2000
I1950
I60
tp128
sI371790
(I2000
I1990
I60
tp129
sI371500
(I237
I226
I215
tp130
sI371501
(I265
I225
I185
tp131
sI371502
(I317
I306
I295
tp132
sI371503
(I345
I305
I265
tp133
sI371504
(I397
I386
I375
tp134
sI371505
(I425
I385
I345
tp135
sI371506
(I477
I466
I455
tp136
sI371507
(I505
I465
I425
tp137
sI371508
(I557
I546
I535
tp138
sI371509
(I585
I545
I505
tp139
sI371510
(I637
I626
I615
tp140
sI371511
(I665
I625
I585
tp141
sI371512
(I717
I706
I695
tp142
sI371513
(I745
I625
I505
tp143
sI371514
(I745
I705
I665
tp144
sI371515
(I785
I705
I625
tp145
sI371516
(I797
I786
I775
tp146
sI371517
(I825
I785
I745
tp147
sI371518
(I877
I866
I855
tp148
sI371519
(I905
I705
I505
tp149
sI371520
(I905
I865
I825
tp150
sI371521
(I945
I785
I625
tp151
sI371522
(I957
I946
I935
tp152
sI371523
(I985
I865
I745
tp153
sI371524
(I985
I945
I905
tp154
sI371525
(I1025
I945
I865
tp155
sI371526
(I1037
I1026
I1015
tp156
sI371527
(I1065
I1025
I985
tp157
sI371528
(I1065
I545
I25
tp158
sI371529
(I1065
I785
I505
tp159
sI371530
(I1105
I625
I145
tp160
sI371531
(I1105
I865
I625
tp161
sI371532
(I1145
I705
I265
tp162
sI371533
(I1145
I945
I745
tp163
sI371534
(I1185
I1025
I865
tp164
sI371535
(I1185
I785
I385
tp165
sI371536
(I1225
I1105
I985
tp166
sI371537
(I1225
I625
I25
tp167
sI371538
(I1225
I865
I505
tp168
sI371539
(I1265
I705
I145
tp169
sI371540
(I1265
I945
I625
tp170
sI371541
(I1305
I1025
I745
tp171
sI371542
(I1305
I785
I265
tp172
sI371543
(I1345
I1105
I865
tp173
sI371544
(I1345
I865
I385
tp174
sI371545
(I1385
I1185
I985
tp175
sI371546
(I1385
I705
I25
tp176
sI371547
(I1385
I945
I505
tp177
sI371548
(I1425
I1025
I625
tp178
sI371549
(I1425
I785
I145
tp179
sI371550
(I1465
I1105
I745
tp180
sI371551
(I1465
I865
I265
tp181
sI371552
(I1505
I1185
I865
tp182
sI371553
(I1505
I945
I385
tp183
sI371554
(I1545
I1025
I505
tp184
sI371555
(I1545
I1265
I985
tp185
sI371556
(I1545
I785
I25
tp186
sI371557
(I1585
I1105
I625
tp187
sI371558
(I1585
I865
I145
tp188
sI371559
(I1625
I1185
I745
tp189
sI371560
(I1625
I945
I265
tp190
sI371561
(I1665
I1025
I385
tp191
sI371562
(I1665
I1265
I865
tp192
sI371563
(I265
I145
I25
tp193
sI371564
(I305
I225
I145
tp194
sI371565
(I425
I225
I25
tp195
sI371566
(I465
I305
I145
tp196
sI371567
(I505
I385
I265
tp197
sI371568
(I545
I465
I385
tp198
sI371569
(I585
I305
I25
tp199
sI371570
(I625
I385
I145
tp200
sI371571
(I665
I465
I265
tp201
sI371572
(I705
I545
I385
tp202
sI371573
(I745
I385
I25
tp203
sI371574
(I785
I465
I145
tp204
sI371575
(I825
I545
I265
tp205
sI371576
(I865
I625
I385
tp206
sI371577
(I905
I465
I25
tp207
sI371578
(I945
I545
I145
tp208
sI371579
(I985
I625
I265
tp209
sI371580
(I1025
I705
I385
tp210
sI371581
(I1705
I1105
I505
tp211
sI371582
(I1705
I1345
I985
tp212
sI371583
(I1705
I865
I25
tp213
sI371584
(I1745
I1185
I625
tp214
sI371585
(I1745
I945
I145
tp215
sI371586
(I1785
I1025
I265
tp216
sI371587
(I1785
I1265
I745
tp217
sI371588
(I1825
I1105
I385
tp218
sI371589
(I1825
I1345
I865
tp219
sI371590
(I1865
I1185
I505
tp220
sI371591
(I1865
I945
I25
tp221
sI371592
(I1905
I1025
I145
tp222
sI371593
(I1905
I1265
I625
tp223
sI371594
(I1945
I1105
I265
tp224
sI371595
(I1945
I1345
I745
tp225
sI371596
(I1985
I1185
I385
tp226
sI371597
(I2025
I1025
I25
tp227
sI371598
(I2025
I1265
I505
tp228
sI371650
(I1000
I70
I60
tp229
sI371651
(I1000
I110
I60
tp230
sI371652
(I1000
I160
I60
tp231
sI371653
(I1000
I260
I60
tp232
sI371654
(I1000
I460
I60
tp233
sI371655
(I1000
I660
I60
tp234
sI371656
(I1000
I800
I60
tp235
sI371657
(I1000
I860
I60
tp236
sI371658
(I1000
I900
I60
tp237
sI371659
(I1000
I950
I60
tp238
sI371660
(I1000
I990
I60
tp239
sI371661
(I1200
I70
I60
tp240
sI371662
(I1200
I110
I60
tp241
sI371663
(I1200
I160
I60
tp242
sI371664
(I1200
I260
I60
tp243
sI371665
(I1200
I460
I60
tp244
sI371666
(I1200
I660
I60
tp245
sI371667
(I1200
I860
I60
tp246
sI371668
(I1200
I1000
I60
tp247
sI371669
(I1200
I1060
I60
tp248
sI371670
(I1200
I1100
I60
tp249
sI371671
(I1200
I1150
I60
tp250
sI371672
(I1200
I1190
I60
tp251
sI371673
(I1400
I70
I60
tp252
sI371674
(I1400
I110
I60
tp253
sI371675
(I1400
I160
I60
tp254
sI371676
(I1400
I260
I60
tp255
sI371677
(I1400
I460
I60
tp256
sI371678
(I1400
I660
I60
tp257
sI371679
(I1400
I860
I60
tp258
sI371680
(I1400
I1060
I60
tp259
sI371681
(I1400
I1200
I60
tp260
sI371682
(I1400
I1260
I60
tp261
sI371683
(I1400
I1300
I60
tp262
sI371684
(I1400
I1350
I60
tp263
sI371685
(I1400
I1390
I60
tp264
sI371686
(I1600
I70
I60
tp265
sI371687
(I1600
I110
I60
tp266
sI371688
(I1600
I160
I60
tp267
sI371689
(I1600
I260
I60
tp268
sI371690
(I1600
I460
I60
tp269
sI371691
(I1600
I660
I60
tp270
sI371692
(I1600
I860
I60
tp271
sI371693
(I1600
I1060
I60
tp272
sI371694
(I1600
I1260
I60
tp273
sI371695
(I1600
I1400
I60
tp274
sI371696
(I1600
I1460
I60
tp275
sI371697
(I1600
I1500
I60
tp276
sI371698
(I1600
I1550
I60
tp277
sI371699
(I1600
I1590
I60
tp278
sI371700
(I200
I70
I60
tp279
sI371701
(I200
I100
I60
tp280
sI371702
(I200
I110
I60
tp281
sI371703
(I200
I150
I60
tp282
sI371704
(I200
I160
I60
tp283
sI371705
(I200
I190
I60
tp284
sI371706
(I400
I70
I60
tp285
sI371707
(I400
I110
I60
tp286
sI371708
(I400
I160
I60
tp287
sI371709
(I400
I200
I60
tp288
sI371710
(I400
I260
I60
tp289
sI371711
(I400
I300
I60
tp290
ssS'SM_GG_N2'
p291
(dp292
I370000
(I665
I185
I1
tp293
sI370001
(I640
I360
I1
tp294
sI370002
(I740
I260
I1
tp295
sI370003
(I845
I155
I1
tp296
sI370004
(I610
I540
I1
tp297
sI370005
(I715
I435
I1
tp298
sI370006
(I815
I335
I1
tp299
sI370007
(I920
I230
I1
tp300
sI370008
(I1020
I130
I1
tp301
sI370009
(I685
I615
I1
tp302
sI370010
(I790
I510
I1
tp303
sI370011
(I890
I410
I1
tp304
sI370012
(I995
I305
I1
tp305
sI370013
(I1095
I205
I1
tp306
sI370014
(I1200
I100
I1
tp307
sI370015
(I835
I765
I1
tp308
sI370016
(I940
I660
I1
tp309
sI370017
(I1040
I560
I1
tp310
sI370018
(I1145
I455
I1
tp311
sI370019
(I1245
I355
I1
tp312
sI370020
(I1350
I250
I1
tp313
sI370021
(I1450
I150
I1
tp314
sI370022
(I985
I915
I1
tp315
sI370023
(I1090
I810
I1
tp316
sI370024
(I1190
I710
I1
tp317
sI370025
(I1295
I605
I1
tp318
sI370026
(I1395
I505
I1
tp319
sI370027
(I1500
I400
I1
tp320
sI370028
(I1600
I300
I1
tp321
sI370029
(I1705
I195
I1
tp322
sI370030
(I1135
I1065
I1
tp323
sI370031
(I1240
I960
I1
tp324
sI370032
(I1340
I860
I1
tp325
sI370033
(I1445
I755
I1
tp326
sI370034
(I1545
I655
I1
tp327
sI370035
(I1650
I550
I1
tp328
sI370036
(I1750
I450
I1
tp329
sI370037
(I1285
I1215
I1
tp330
sI370038
(I1390
I1110
I1
tp331
sI370039
(I1490
I1010
I1
tp332
sI370040
(I1595
I905
I1
tp333
sI370041
(I1695
I805
I1
tp334
sI370042
(I1800
I700
I1
tp335
sI370043
(I1540
I1260
I1
tp336
sI370044
(I1640
I1160
I1
tp337
sI370045
(I1745
I1055
I1
tp338
ssS'Gtt'
p339
(dp340
sS'GG_direct'
p341
(dp342
I370900
(I200
I0
tp343
sI370901
(I400
I0
tp344
sI370902
(I600
I0
tp345
sI370903
(I612
I587
tp346
sI370904
(I625
I575
tp347
sI370905
(I650
I550
tp348
sI370906
(I700
I500
tp349
sI370907
(I712
I687
tp350
sI370908
(I725
I675
tp351
sI370909
(I750
I650
tp352
sI370910
(I800
I0
tp353
sI370911
(I800
I600
tp354
sI370912
(I812
I787
tp355
sI370913
(I825
I775
tp356
sI370914
(I850
I550
tp357
sI370915
(I850
I750
tp358
sI370916
(I900
I500
tp359
sI370917
(I900
I700
tp360
sI370918
(I912
I887
tp361
sI370919
(I925
I875
tp362
sI370920
(I950
I650
tp363
sI370921
(I950
I850
tp364
sI370922
(I1000
I0
tp365
sI370923
(I1000
I600
tp366
sI370924
(I1000
I800
tp367
sI370925
(I1050
I550
tp368
sI370926
(I1050
I750
tp369
sI370927
(I1100
I100
tp370
sI370928
(I1100
I300
tp371
sI370929
(I1100
I500
tp372
sI370930
(I1100
I700
tp373
sI370931
(I1100
I900
tp374
sI370932
(I1150
I50
tp375
sI370933
(I1150
I250
tp376
sI370934
(I1150
I450
tp377
sI370935
(I1150
I650
tp378
sI370936
(I1150
I850
tp379
sI370937
(I1200
I0
tp380
sI370938
(I1200
I200
tp381
sI370939
(I1200
I400
tp382
sI370940
(I1200
I600
tp383
sI370941
(I1200
I800
tp384
sI370942
(I1250
I150
tp385
sI370943
(I1250
I350
tp386
sI370944
(I1250
I550
tp387
sI370945
(I1250
I750
tp388
sI370946
(I1300
I100
tp389
sI370947
(I1300
I300
tp390
sI370948
(I1300
I500
tp391
sI370949
(I1300
I700
tp392
sI370950
(I1300
I900
tp393
sI370951
(I1350
I50
tp394
sI370952
(I1350
I250
tp395
sI370953
(I1350
I450
tp396
sI370954
(I1350
I650
tp397
sI370955
(I1350
I850
tp398
sI370956
(I1400
I0
tp399
sI370957
(I1400
I200
tp400
sI370958
(I1400
I400
tp401
sI370959
(I1400
I600
tp402
sI370960
(I1400
I800
tp403
sI370961
(I1450
I150
tp404
sI370962
(I1450
I350
tp405
sI370963
(I1450
I550
tp406
sI370964
(I1450
I750
tp407
sI370965
(I1500
I100
tp408
sI370966
(I1500
I300
tp409
sI370967
(I1500
I500
tp410
sI370968
(I1500
I700
tp411
sI370969
(I1500
I900
tp412
sI370970
(I1550
I50
tp413
sI370971
(I1550
I250
tp414
sI370972
(I1550
I450
tp415
sI370973
(I1550
I650
tp416
sI370974
(I1550
I850
tp417
sI370975
(I1600
I0
tp418
sI370976
(I1600
I200
tp419
sI370977
(I1600
I400
tp420
sI370978
(I1600
I600
tp421
sI370979
(I1600
I800
tp422
sI370980
(I1650
I150
tp423
sI370981
(I1650
I350
tp424
sI370982
(I1650
I550
tp425
sI370983
(I1650
I750
tp426
sI370984
(I1700
I100
tp427
sI370985
(I1700
I300
tp428
sI370986
(I1700
I500
tp429
sI370987
(I1700
I700
tp430
sI370988
(I1700
I900
tp431
sI370989
(I1750
I50
tp432
sI370990
(I1750
I250
tp433
sI370991
(I1750
I450
tp434
sI370992
(I1750
I650
tp435
sI370993
(I1750
I850
tp436
sI370994
(I1800
I0
tp437
sI370995
(I1800
I200
tp438
sI370996
(I1800
I400
tp439
sI370997
(I1800
I600
tp440
sI370998
(I1800
I800
tp441
sI370999
(I1850
I150
tp442
sI371000
(I1850
I350
tp443
sI371001
(I1850
I550
tp444
sI371002
(I1850
I750
tp445
sI371003
(I1900
I100
tp446
sI371004
(I1900
I300
tp447
sI371005
(I1900
I500
tp448
sI371006
(I1900
I700
tp449
sI371007
(I1900
I900
tp450
sI371008
(I1950
I50
tp451
sI371009
(I1950
I250
tp452
sI371010
(I1950
I450
tp453
sI371011
(I1950
I650
tp454
sI371012
(I1950
I850
tp455
sI371013
(I2000
I0
tp456
sI371014
(I2000
I200
tp457
sI371015
(I2000
I400
tp458
sI371016
(I2000
I600
tp459
sI371017
(I2000
I800
tp460
sI371018
(I112
I87
tp461
sI371019
(I125
I75
tp462
sI371020
(I150
I50
tp463
sI371021
(I212
I187
tp464
sI371022
(I225
I175
tp465
sI371023
(I250
I150
tp466
sI371024
(I300
I100
tp467
sI371025
(I312
I287
tp468
sI371026
(I325
I275
tp469
sI371027
(I350
I50
tp470
sI371028
(I350
I250
tp471
sI371029
(I400
I200
tp472
sI371030
(I412
I387
tp473
sI371031
(I425
I375
tp474
sI371032
(I450
I150
tp475
sI371033
(I450
I350
tp476
sI371034
(I500
I100
tp477
sI371035
(I500
I300
tp478
sI371036
(I512
I487
tp479
sI371037
(I525
I475
tp480
sI371038
(I550
I50
tp481
sI371039
(I550
I250
tp482
sI371040
(I550
I450
tp483
sI371041
(I600
I200
tp484
sI371042
(I600
I400
tp485
sI371043
(I650
I150
tp486
sI371044
(I650
I350
tp487
sI371045
(I662
I637
tp488
sI371046
(I675
I625
tp489
sI371047
(I700
I100
tp490
sI371048
(I700
I300
tp491
sI371049
(I700
I600
tp492
sI371050
(I750
I50
tp493
sI371051
(I750
I250
tp494
sI371052
(I750
I450
tp495
sI371053
(I750
I550
tp496
sI371054
(I762
I737
tp497
sI371055
(I775
I725
tp498
sI371056
(I800
I200
tp499
sI371057
(I800
I400
tp500
sI371058
(I800
I500
tp501
sI371059
(I800
I700
tp502
sI371060
(I850
I150
tp503
sI371061
(I850
I350
tp504
sI371062
(I850
I450
tp505
sI371063
(I850
I650
tp506
sI371064
(I862
I837
tp507
sI371065
(I875
I825
tp508
sI371066
(I900
I100
tp509
sI371067
(I900
I300
tp510
sI371068
(I900
I400
tp511
sI371069
(I900
I600
tp512
sI371070
(I900
I800
tp513
sI371071
(I950
I50
tp514
sI371072
(I950
I250
tp515
sI371073
(I950
I350
tp516
sI371074
(I950
I450
tp517
sI371075
(I950
I550
tp518
sI371076
(I950
I750
tp519
sI371077
(I1000
I200
tp520
sI371078
(I1000
I300
tp521
sI371079
(I1000
I400
tp522
sI371080
(I1000
I500
tp523
sI371081
(I1000
I700
tp524
sI371082
(I1012
I987
tp525
sI371083
(I1025
I975
tp526
sI371084
(I1050
I150
tp527
sI371085
(I1050
I250
tp528
sI371086
(I1050
I350
tp529
sI371087
(I1050
I450
tp530
sI371088
(I1050
I650
tp531
sI371089
(I1050
I950
tp532
sI371090
(I1100
I200
tp533
sI371091
(I1100
I400
tp534
sI371092
(I1100
I600
tp535
sI371093
(I1150
I150
tp536
sI371094
(I1150
I350
tp537
sI371095
(I1150
I550
tp538
sI371096
(I1200
I100
tp539
sI371097
(I1200
I300
tp540
sI371098
(I1200
I500
tp541
sI371099
(I1200
I1000
tp542
sI371100
(I1250
I50
tp543
sI371101
(I1250
I250
tp544
sI371102
(I1250
I450
tp545
sI371103
(I1250
I950
tp546
sI371104
(I1300
I0
tp547
sI371105
(I1300
I200
tp548
sI371106
(I1300
I400
tp549
sI371107
(I1350
I150
tp550
sI371108
(I1350
I350
tp551
sI371109
(I1400
I100
tp552
sI371110
(I1400
I300
tp553
sI371111
(I1400
I1000
tp554
sI371112
(I1450
I50
tp555
sI371113
(I1450
I250
tp556
sI371114
(I1450
I950
tp557
sI371115
(I1500
I0
tp558
sI371116
(I1500
I200
tp559
sI371117
(I1550
I150
tp560
sI371118
(I1600
I100
tp561
sI371119
(I1600
I1000
tp562
sI371120
(I1650
I50
tp563
sI371121
(I1650
I950
tp564
sI371122
(I1700
I0
tp565
sI371123
(I1800
I1000
tp566
sI371124
(I1850
I950
tp567
sI371125
(I2000
I1000
tp568
sI406000
(I1500
I0
tp569
ssS'SS_direct'
p570
(dp571
I370700
(I200
I0
tp572
sI370701
(I400
I0
tp573
sI370702
(I400
I375
tp574
sI370703
(I425
I375
tp575
sI370704
(I400
I350
tp576
sI370705
(I400
I300
tp577
sI370706
(I500
I475
tp578
sI370707
(I500
I450
tp579
sI370708
(I500
I400
tp580
sI370709
(I600
I0
tp581
sI370710
(I600
I500
tp582
sI370711
(I600
I400
tp583
sI370712
(I600
I575
tp584
sI370713
(I600
I550
tp585
sI370714
(I800
I100
tp586
sI370715
(I800
I300
tp587
sI370716
(I800
I500
tp588
sI370717
(I800
I600
tp589
sI370718
(I900
I0
tp590
sI370719
(I900
I100
tp591
sI370720
(I900
I200
tp592
sI370721
(I900
I300
tp593
sI370722
(I900
I400
tp594
sI370723
(I800
I0
tp595
sI370724
(I800
I200
tp596
sI370725
(I800
I400
tp597
sI370726
(I900
I500
tp598
sI370727
(I900
I600
tp599
sI370728
(I1000
I100
tp600
sI370729
(I1000
I300
tp601
sI370730
(I1000
I500
tp602
sI370731
(I1000
I600
tp603
sI370732
(I1100
I0
tp604
sI370733
(I1100
I100
tp605
sI370734
(I1100
I200
tp606
sI370735
(I1100
I300
tp607
sI370736
(I1000
I0
tp608
sI370737
(I1000
I200
tp609
sI370738
(I1000
I400
tp610
sI370739
(I1100
I400
tp611
sI370740
(I1100
I500
tp612
sI370741
(I1100
I600
tp613
sI370742
(I1200
I100
tp614
sI370743
(I1200
I300
tp615
sI370744
(I1200
I400
tp616
sI370745
(I1200
I500
tp617
sI370746
(I1200
I600
tp618
sI370747
(I1300
I0
tp619
sI370748
(I1300
I100
tp620
sI370749
(I1200
I0
tp621
sI370750
(I1200
I200
tp622
sI370751
(I1300
I200
tp623
sI370752
(I1300
I300
tp624
sI370753
(I1300
I400
tp625
sI370754
(I1300
I500
tp626
sI370755
(I1300
I600
tp627
sI370756
(I1400
I100
tp628
sI370757
(I1400
I200
tp629
sI370758
(I1400
I300
tp630
sI370759
(I1400
I400
tp631
sI370760
(I1400
I500
tp632
sI370761
(I1400
I600
tp633
sI370762
(I1400
I0
tp634
sI370763
(I1500
I0
tp635
sI370764
(I1500
I100
tp636
sI370765
(I1500
I200
tp637
sI370766
(I1500
I300
tp638
sI370767
(I1500
I400
tp639
sI370768
(I1500
I500
tp640
sI370769
(I1500
I600
tp641
sI370770
(I1600
I100
tp642
sI370771
(I1600
I200
tp643
sI370772
(I1600
I300
tp644
sI370773
(I1600
I400
tp645
sI370774
(I1600
I500
tp646
sI370775
(I1600
I0
tp647
sI370776
(I1600
I600
tp648
sI370777
(I200
I100
tp649
sI370778
(I200
I175
tp650
sI370779
(I200
I150
tp651
sI370780
(I300
I0
tp652
sI370781
(I300
I100
tp653
sI370782
(I300
I200
tp654
sI370783
(I300
I275
tp655
sI370784
(I300
I250
tp656
sI370785
(I400
I100
tp657
sI370786
(I400
I200
tp658
sI370787
(I500
I0
tp659
sI370788
(I500
I100
tp660
sI370789
(I500
I200
tp661
sI370790
(I500
I300
tp662
sI370791
(I600
I100
tp663
sI370792
(I600
I200
tp664
sI370793
(I600
I300
tp665
sI370794
(I700
I0
tp666
sI370795
(I700
I100
tp667
sI370796
(I700
I200
tp668
sI370797
(I700
I300
tp669
sI370798
(I700
I400
tp670
sI370799
(I700
I500
tp671
sI370800
(I700
I600
tp672
sI370801
(I600
I300
tp673
sI370802
(I600
I500
tp674
sI370803
(I650
I250
tp675
sI370804
(I650
I450
tp676
sI370805
(I700
I200
tp677
sI370806
(I700
I400
tp678
sI370807
(I750
I150
tp679
sI370808
(I750
I350
tp680
sI370809
(I800
I100
tp681
sI370810
(I800
I300
tp682
sI370811
(I850
I50
tp683
sI370812
(I850
I250
tp684
sI370813
(I900
I0
tp685
sI370814
(I900
I200
tp686
sI370815
(I950
I150
tp687
sI370816
(I1000
I100
tp688
sI370817
(I1050
I50
tp689
sI370818
(I1100
I0
tp690
ss.